target datalayout = "e-m:e-p270:32:32-p271:32:32-p272:64:64-i64:64-i128:128-f80:128-n8:16:32:64-S128"
target triple = "x86_64-pc-linux-gnu"

; Function Attrs: inlinehint nounwind uwtable
define internal i64 @lean_unbox(ptr noundef %0) #0 {
  %2 = alloca ptr, align 8
  store ptr %0, ptr %2, align 8, !tbaa !4
  %3 = load ptr, ptr %2, align 8, !tbaa !4
  %4 = ptrtoint ptr %3 to i64
  %5 = lshr i64 %4, 1
  ret i64 %5
}

; Function Attrs: inlinehint nounwind uwtable
define internal ptr @lean_int64_to_int(i64 noundef %0) #0 {
  %2 = alloca ptr, align 8
  %3 = alloca i64, align 8
  store i64 %0, ptr %3, align 8, !tbaa !8
  %4 = load i64, ptr %3, align 8, !tbaa !8
  %5 = icmp sle i64 -2147483648, %4
  br i1 %5, label %6, label %9

6:                                                ; preds = %1
  %7 = load i64, ptr %3, align 8, !tbaa !8
  %8 = icmp sle i64 %7, 2147483647
  br label %9

9:                                                ; preds = %6, %1
  %10 = phi i1 [ false, %1 ], [ %8, %6 ]
  %11 = zext i1 %10 to i32
  %12 = sext i32 %11 to i64
  %13 = call i64 @llvm.expect.i64(i64 %12, i64 1)
  %14 = icmp ne i64 %13, 0
  br i1 %14, label %15, label %20

15:                                               ; preds = %9
  %16 = load i64, ptr %3, align 8, !tbaa !8
  %17 = trunc i64 %16 to i32
  %18 = zext i32 %17 to i64
  %19 = call ptr @lean_box(i64 noundef %18)
  store ptr %19, ptr %2, align 8
  br label %23

20:                                               ; preds = %9
  %21 = load i64, ptr %3, align 8, !tbaa !8
  %22 = call ptr @lean_big_int64_to_int(i64 noundef %21)
  store ptr %22, ptr %2, align 8
  br label %23

23:                                               ; preds = %20, %15
  %24 = load ptr, ptr %2, align 8
  ret ptr %24
}

; Function Attrs: inlinehint nounwind uwtable
define internal ptr @lean_box(i64 noundef %0) #0 {
  %2 = alloca i64, align 8
  store i64 %0, ptr %2, align 8, !tbaa !8
  %3 = load i64, ptr %2, align 8, !tbaa !8
  %4 = shl i64 %3, 1
  %5 = or i64 %4, 1
  %6 = inttoptr i64 %5 to ptr
  ret ptr %6
}

; Function Attrs: inlinehint nounwind uwtable
define internal i32 @lean_scalar_to_int(ptr noundef %0) #0 {
  %2 = alloca ptr, align 8
  store ptr %0, ptr %2, align 8, !tbaa !4
  %3 = load ptr, ptr %2, align 8, !tbaa !4
  %4 = call i64 @lean_unbox(ptr noundef %3)
  %5 = trunc i64 %4 to i32
  ret i32 %5
}

; Function Attrs: alwaysinline nounwind uwtable
define internal zeroext i1 @lean_is_scalar(ptr noundef %0) #4 {
  %2 = alloca ptr, align 8
  store ptr %0, ptr %2, align 8, !tbaa !4
  %3 = load ptr, ptr %2, align 8, !tbaa !4
  %4 = ptrtoint ptr %3 to i64
  %5 = and i64 %4, 1
  %6 = icmp eq i64 %5, 1
  ret i1 %6
}

; Function Attrs: inlinehint nounwind uwtable
define internal ptr @lean_int_ediv(ptr noundef %0, ptr noundef %1) #0 {
  %3 = alloca ptr, align 8
  %4 = alloca ptr, align 8
  %5 = alloca ptr, align 8
  %6 = alloca i64, align 8
  %7 = alloca i64, align 8
  %8 = alloca i32, align 4
  %9 = alloca i64, align 8
  %10 = alloca i64, align 8
  store ptr %0, ptr %4, align 8, !tbaa !4
  store ptr %1, ptr %5, align 8, !tbaa !4
  %11 = load ptr, ptr %4, align 8, !tbaa !4
  %12 = call zeroext i1 @lean_is_scalar(ptr noundef %11)
  br i1 %12, label %13, label %16

13:                                               ; preds = %2
  %14 = load ptr, ptr %5, align 8, !tbaa !4
  %15 = call zeroext i1 @lean_is_scalar(ptr noundef %14)
  br label %16

16:                                               ; preds = %13, %2
  %17 = phi i1 [ false, %2 ], [ %15, %13 ]
  %18 = zext i1 %17 to i32
  %19 = sext i32 %18 to i64
  %20 = call i64 @llvm.expect.i64(i64 %19, i64 1)
  %21 = icmp ne i64 %20, 0
  br i1 %21, label %22, label %57

22:                                               ; preds = %16
  call void @llvm.lifetime.start.p0(i64 8, ptr %6) #7
  %23 = load ptr, ptr %4, align 8, !tbaa !4
  %24 = call i32 @lean_scalar_to_int(ptr noundef %23)
  %25 = sext i32 %24 to i64
  store i64 %25, ptr %6, align 8, !tbaa !8
  call void @llvm.lifetime.start.p0(i64 8, ptr %7) #7
  %26 = load ptr, ptr %5, align 8, !tbaa !4
  %27 = call i32 @lean_scalar_to_int(ptr noundef %26)
  %28 = sext i32 %27 to i64
  store i64 %28, ptr %7, align 8, !tbaa !8
  %29 = load i64, ptr %7, align 8, !tbaa !8
  %30 = icmp eq i64 %29, 0
  br i1 %30, label %31, label %33

31:                                               ; preds = %22
  %32 = call ptr @lean_box(i64 noundef 0)
  store ptr %32, ptr %3, align 8
  store i32 1, ptr %8, align 4
  br label %56

33:                                               ; preds = %22
  call void @llvm.lifetime.start.p0(i64 8, ptr %9) #7
  %34 = load i64, ptr %6, align 8, !tbaa !8
  %35 = load i64, ptr %7, align 8, !tbaa !8
  %36 = sdiv i64 %34, %35
  store i64 %36, ptr %9, align 8, !tbaa !8
  call void @llvm.lifetime.start.p0(i64 8, ptr %10) #7
  %37 = load i64, ptr %6, align 8, !tbaa !8
  %38 = load i64, ptr %7, align 8, !tbaa !8
  %39 = srem i64 %37, %38
  store i64 %39, ptr %10, align 8, !tbaa !8
  %40 = load i64, ptr %10, align 8, !tbaa !8
  %41 = icmp slt i64 %40, 0
  br i1 %41, label %42, label %53

42:                                               ; preds = %33
  %43 = load i64, ptr %7, align 8, !tbaa !8
  %44 = icmp sgt i64 %43, 0
  br i1 %44, label %45, label %48

45:                                               ; preds = %42
  %46 = load i64, ptr %9, align 8, !tbaa !8
  %47 = sub i64 %46, 1
  br label %51

48:                                               ; preds = %42
  %49 = load i64, ptr %9, align 8, !tbaa !8
  %50 = add i64 %49, 1
  br label %51

51:                                               ; preds = %48, %45
  %52 = phi i64 [ %47, %45 ], [ %50, %48 ]
  store i64 %52, ptr %9, align 8, !tbaa !8
  br label %53

53:                                               ; preds = %51, %33
  %54 = load i64, ptr %9, align 8, !tbaa !8
  %55 = call ptr @lean_int64_to_int(i64 noundef %54)
  store ptr %55, ptr %3, align 8
  store i32 1, ptr %8, align 4
  call void @llvm.lifetime.end.p0(i64 8, ptr %10) #7
  call void @llvm.lifetime.end.p0(i64 8, ptr %9) #7
  br label %56

56:                                               ; preds = %53, %31
  call void @llvm.lifetime.end.p0(i64 8, ptr %7) #7
  call void @llvm.lifetime.end.p0(i64 8, ptr %6) #7
  br label %61

57:                                               ; preds = %16
  %58 = load ptr, ptr %4, align 8, !tbaa !4
  %59 = load ptr, ptr %5, align 8, !tbaa !4
  %60 = call ptr @lean_int_big_ediv(ptr noundef %58, ptr noundef %59)
  store ptr %60, ptr %3, align 8
  br label %61

61:                                               ; preds = %57, %56
  %62 = load ptr, ptr %3, align 8
  ret ptr %62
}